; Function Attrs: mustprogress uwtable
define dso_local noundef i32 @_ZN11cmXMLParser11ParseBufferEPKc(ptr noundef nonnull align 8 dereferenceable(40) %0, ptr noundef %1) local_unnamed_addr #7 align 2 {
  %3 = tail call i64 @strlen(ptr noundef nonnull dereferenceable(1) %1) #17
  %sext = shl i64 %3, 32
  %4 = ashr exact i64 %sext, 32
  %5 = load ptr, ptr %0, align 8
  %6 = getelementptr inbounds i8, ptr %5, i64 104
  %7 = load ptr, ptr %6, align 8
  %8 = tail call noundef i32 %7(ptr noundef nonnull align 8 dereferenceable(40) %0, ptr noundef %1, i64 noundef %4)
  ret i32 %8
}